target datalayout = "e-m:e-p270:32:32-p271:32:32-p272:64:64-i64:64-i128:128-f80:128-n8:16:32:64-S128"
target triple = "x86_64-pc-linux-gnu"

@.str.18 = private unnamed_addr constant [30 x i8] c"../openssl/test/threadstest.c\00", align 1
@rwtorturelock = internal global ptr null, align 8
@atomiclock = internal global ptr null, align 8
@rwwriter1_done = internal global i32 0, align 4
@rwwriter2_done = internal global i32 0, align 4
@rw_torture_result = internal global i32 1, align 4
@rwwriter_ptr = internal global ptr null, align 8
@.str.78 = private unnamed_addr constant [33 x i8] c"rwwriter pointer went backwards\0A\00", align 1

; Function Attrs: nounwind uwtable
define internal void @rwreader_fn(ptr noundef %0) #0 {
  %2 = alloca ptr, align 8
  %3 = alloca i32, align 4
  %4 = alloca i32, align 4
  %5 = alloca i32, align 4
  %6 = alloca i32, align 4
  %7 = alloca i32, align 4
  store ptr %0, ptr %2, align 8, !tbaa !47
  call void @llvm.lifetime.start.p0(i64 4, ptr %3) #10
  store i32 0, ptr %3, align 4, !tbaa !4
  call void @llvm.lifetime.start.p0(i64 4, ptr %4) #10
  store i32 0, ptr %4, align 4, !tbaa !4
  call void @llvm.lifetime.start.p0(i64 4, ptr %5) #10
  store i32 0, ptr %5, align 4, !tbaa !4
  call void @llvm.lifetime.start.p0(i64 4, ptr %6) #10
  store i32 0, ptr %6, align 4, !tbaa !4
  %8 = load ptr, ptr @rwtorturelock, align 8, !tbaa !13
  %9 = call i32 @CRYPTO_THREAD_read_lock(ptr noundef %8)
  %10 = icmp eq i32 %9, 0
  br i1 %10, label %11, label %12

11:                                               ; preds = %1
  call void @abort() #11
  unreachable

12:                                               ; preds = %1
  br label %13

13:                                               ; preds = %54, %12
  %14 = load i32, ptr %5, align 4, !tbaa !4
  %15 = icmp ne i32 %14, 1
  br i1 %15, label %19, label %16

16:                                               ; preds = %13
  %17 = load i32, ptr %6, align 4, !tbaa !4
  %18 = icmp ne i32 %17, 1
  br label %19

19:                                               ; preds = %16, %13
  %20 = phi i1 [ true, %13 ], [ %18, %16 ]
  br i1 %20, label %21, label %55

21:                                               ; preds = %19
  %22 = load ptr, ptr @atomiclock, align 8, !tbaa !13
  %23 = call i32 @CRYPTO_atomic_add(ptr noundef @rwwriter1_done, i32 noundef 0, ptr noundef %5, ptr noundef %22)
  %24 = load ptr, ptr @atomiclock, align 8, !tbaa !13
  %25 = call i32 @CRYPTO_atomic_add(ptr noundef @rwwriter2_done, i32 noundef 0, ptr noundef %6, ptr noundef %24)
  %26 = load i32, ptr %3, align 4, !tbaa !4
  %27 = add i32 %26, 1
  store i32 %27, ptr %3, align 4, !tbaa !4
  %28 = load ptr, ptr @rwwriter_ptr, align 8, !tbaa !47
  %29 = icmp ne ptr %28, null
  br i1 %29, label %30, label %36

30:                                               ; preds = %21
  %31 = load i32, ptr %4, align 4, !tbaa !4
  %32 = load ptr, ptr @rwwriter_ptr, align 8, !tbaa !47
  %33 = load i32, ptr %32, align 4, !tbaa !4
  %34 = icmp sgt i32 %31, %33
  br i1 %34, label %35, label %36

35:                                               ; preds = %30
  call void (ptr, i32, ptr, ...) @test_info(ptr noundef @.str.18, i32 noundef 186, ptr noundef @.str.78)
  store i32 0, ptr @rw_torture_result, align 4, !tbaa !4
  br label %36

36:                                               ; preds = %35, %30, %21
  %37 = load ptr, ptr @rwtorturelock, align 8, !tbaa !13
  %38 = call i32 @CRYPTO_THREAD_unlock(ptr noundef %37)
  %39 = icmp eq i32 %38, 0
  br i1 %39, label %40, label %41

40:                                               ; preds = %36
  call void @abort() #11
  unreachable

41:                                               ; preds = %36
  %42 = load i32, ptr %3, align 4, !tbaa !4
  %43 = load ptr, ptr %2, align 8, !tbaa !47
  store i32 %42, ptr %43, align 4, !tbaa !4
  %44 = load i32, ptr @rw_torture_result, align 4, !tbaa !4
  %45 = icmp eq i32 %44, 0
  br i1 %45, label %46, label %49

46:                                               ; preds = %41
  %47 = load i32, ptr %3, align 4, !tbaa !4
  %48 = load ptr, ptr %2, align 8, !tbaa !47
  store i32 %47, ptr %48, align 4, !tbaa !4
  store i32 1, ptr %7, align 4
  br label %63

49:                                               ; preds = %41
  %50 = load ptr, ptr @rwtorturelock, align 8, !tbaa !13
  %51 = call i32 @CRYPTO_THREAD_read_lock(ptr noundef %50)
  %52 = icmp eq i32 %51, 0
  br i1 %52, label %53, label %54

53:                                               ; preds = %49
  call void @abort() #11
  unreachable

54:                                               ; preds = %49
  br label %13, !llvm.loop !49

55:                                               ; preds = %19
  %56 = load i32, ptr %3, align 4, !tbaa !4
  %57 = load ptr, ptr %2, align 8, !tbaa !47
  store i32 %56, ptr %57, align 4, !tbaa !4
  %58 = load ptr, ptr @rwtorturelock, align 8, !tbaa !13
  %59 = call i32 @CRYPTO_THREAD_unlock(ptr noundef %58)
  %60 = icmp eq i32 %59, 0
  br i1 %60, label %61, label %62

61:                                               ; preds = %55
  call void @abort() #11
  unreachable

62:                                               ; preds = %55
  store i32 0, ptr %7, align 4
  br label %63

63:                                               ; preds = %62, %46
  call void @llvm.lifetime.end.p0(i64 4, ptr %6) #10
  call void @llvm.lifetime.end.p0(i64 4, ptr %5) #10
  call void @llvm.lifetime.end.p0(i64 4, ptr %4) #10
  call void @llvm.lifetime.end.p0(i64 4, ptr %3) #10
  %64 = load i32, ptr %7, align 4
  switch i32 %64, label %66 [
    i32 0, label %65
    i32 1, label %65
  ]

65:                                               ; preds = %63, %63
  ret void

66:                                               ; preds = %63
  unreachable
}