; Function Attrs: nounwind uwtable
define internal fastcc void @rwreader_fn(ptr noundef writeonly captures(none) %0) unnamed_addr #1 {
  %2 = alloca i32, align 4
  %3 = alloca i32, align 4
  call void @llvm.lifetime.start.p0(i64 4, ptr nonnull %2) #11
  store i32 0, ptr %2, align 4, !tbaa !14
  call void @llvm.lifetime.start.p0(i64 4, ptr nonnull %3) #11
  store i32 0, ptr %3, align 4, !tbaa !14
  %4 = load ptr, ptr @rwtorturelock, align 8, !tbaa !11
  %5 = tail call i32 @CRYPTO_THREAD_read_lock(ptr noundef %4) #11
  %6 = icmp eq i32 %5, 0
  br i1 %6, label %7, label %.preheader

7:                                                ; preds = %1
  tail call void @abort() #12
  unreachable

.preheader:                                       ; preds = %1, %30
  %.0 = phi i32 [ %18, %30 ], [ 0, %1 ]
  %8 = load i32, ptr %2, align 4, !tbaa !14
  %9 = icmp ne i32 %8, 1
  %10 = load i32, ptr %3, align 4
  %11 = icmp ne i32 %10, 1
  %12 = select i1 %9, i1 true, i1 %11
  br i1 %12, label %13, label %35

13:                                               ; preds = %.preheader
  %14 = load ptr, ptr @atomiclock, align 8, !tbaa !11
  %15 = call i32 @CRYPTO_atomic_add(ptr noundef nonnull @rwwriter1_done, i32 noundef 0, ptr noundef nonnull %2, ptr noundef %14) #11
  %16 = load ptr, ptr @atomiclock, align 8, !tbaa !11
  %17 = call i32 @CRYPTO_atomic_add(ptr noundef nonnull @rwwriter2_done, i32 noundef 0, ptr noundef nonnull %3, ptr noundef %16) #11
  %18 = add i32 %.0, 1
  %19 = load ptr, ptr @rwwriter_ptr, align 8, !tbaa !30
  %.not = icmp eq ptr %19, null
  br i1 %.not, label %24, label %20

20:                                               ; preds = %13
  %21 = load i32, ptr %19, align 4, !tbaa !14
  %22 = icmp slt i32 %21, 0
  br i1 %22, label %23, label %24

23:                                               ; preds = %20
  call void (ptr, i32, ptr, ...) @test_info(ptr noundef nonnull @.str.18, i32 noundef 186, ptr noundef nonnull @.str.78) #11
  store i1 true, ptr @rw_torture_result, align 4
  br label %24

24:                                               ; preds = %23, %20, %13
  %25 = load ptr, ptr @rwtorturelock, align 8, !tbaa !11
  %26 = call i32 @CRYPTO_THREAD_unlock(ptr noundef %25) #11
  %27 = icmp eq i32 %26, 0
  br i1 %27, label %28, label %29

28:                                               ; preds = %24
  call void @abort() #12
  unreachable

29:                                               ; preds = %24
  store i32 %18, ptr %0, align 4, !tbaa !14
  %.b = load i1, ptr @rw_torture_result, align 4
  br i1 %.b, label %.loopexit, label %30

30:                                               ; preds = %29
  %31 = load ptr, ptr @rwtorturelock, align 8, !tbaa !11
  %32 = call i32 @CRYPTO_THREAD_read_lock(ptr noundef %31) #11
  %33 = icmp eq i32 %32, 0
  br i1 %33, label %34, label %.preheader, !llvm.loop !32

34:                                               ; preds = %30
  call void @abort() #12
  unreachable

35:                                               ; preds = %.preheader
  store i32 %.0, ptr %0, align 4, !tbaa !14
  %36 = load ptr, ptr @rwtorturelock, align 8, !tbaa !11
  %37 = call i32 @CRYPTO_THREAD_unlock(ptr noundef %36) #11
  %38 = icmp eq i32 %37, 0
  br i1 %38, label %39, label %.loopexit

39:                                               ; preds = %35
  call void @abort() #12
  unreachable

.loopexit:                                        ; preds = %29, %35
  call void @llvm.lifetime.end.p0(i64 4, ptr nonnull %3) #11
  call void @llvm.lifetime.end.p0(i64 4, ptr nonnull %2) #11
  ret void
}